target datalayout = "e-m:e-p270:32:32-p271:32:32-p272:64:64-i64:64-i128:128-f80:128-n8:16:32:64-S128"
target triple = "x86_64-pc-linux-gnu"

; Function Attrs: inlinehint nounwind uwtable
define internal void @rgtc2_block_internal(ptr noundef %0, i64 noundef %1, ptr noundef %2, i32 noundef %3) #2 {
  %5 = alloca ptr, align 8
  %6 = alloca i64, align 8
  %7 = alloca ptr, align 8
  %8 = alloca i32, align 4
  %9 = alloca [64 x i8], align 16
  %10 = alloca [64 x i8], align 16
  %11 = alloca i32, align 4
  %12 = alloca i32, align 4
  %13 = alloca ptr, align 8
  %14 = alloca i32, align 4
  %15 = alloca i32, align 4
  %16 = alloca i32, align 4
  %17 = alloca i32, align 4
  store ptr %0, ptr %5, align 8, !tbaa !25
  store i64 %1, ptr %6, align 8, !tbaa !27
  store ptr %2, ptr %7, align 8, !tbaa !25
  store i32 %3, ptr %8, align 4, !tbaa !29
  call void @llvm.lifetime.start.p0(i64 64, ptr %9) #7
  call void @llvm.lifetime.start.p0(i64 64, ptr %10) #7
  call void @llvm.lifetime.start.p0(i64 4, ptr %11) #7
  call void @llvm.lifetime.start.p0(i64 4, ptr %12) #7
  %18 = getelementptr inbounds [64 x i8], ptr %9, i64 0, i64 0
  %19 = load ptr, ptr %7, align 8, !tbaa !25
  %20 = load i32, ptr %8, align 4, !tbaa !29
  call void @rgtc1_block_internal(ptr noundef %18, i64 noundef 16, ptr noundef %19, i32 noundef %20, i32 noundef 0, i32 noundef 0, i32 noundef 4)
  %21 = getelementptr inbounds [64 x i8], ptr %10, i64 0, i64 0
  %22 = load ptr, ptr %7, align 8, !tbaa !25
  %23 = getelementptr inbounds i8, ptr %22, i64 8
  %24 = load i32, ptr %8, align 4, !tbaa !29
  call void @rgtc1_block_internal(ptr noundef %21, i64 noundef 16, ptr noundef %23, i32 noundef %24, i32 noundef 0, i32 noundef 0, i32 noundef 4)
  store i32 0, ptr %12, align 4, !tbaa !29
  br label %25

25:                                               ; preds = %98, %4
  %26 = load i32, ptr %12, align 4, !tbaa !29
  %27 = icmp slt i32 %26, 4
  br i1 %27, label %28, label %101

28:                                               ; preds = %25
  store i32 0, ptr %11, align 4, !tbaa !29
  br label %29

29:                                               ; preds = %94, %28
  %30 = load i32, ptr %11, align 4, !tbaa !29
  %31 = icmp slt i32 %30, 4
  br i1 %31, label %32, label %97

32:                                               ; preds = %29
  call void @llvm.lifetime.start.p0(i64 8, ptr %13) #7
  %33 = load ptr, ptr %5, align 8, !tbaa !25
  %34 = load i32, ptr %11, align 4, !tbaa !29
  %35 = mul nsw i32 %34, 4
  %36 = sext i32 %35 to i64
  %37 = getelementptr inbounds i8, ptr %33, i64 %36
  %38 = load i32, ptr %12, align 4, !tbaa !29
  %39 = sext i32 %38 to i64
  %40 = load i64, ptr %6, align 8, !tbaa !27
  %41 = mul nsw i64 %39, %40
  %42 = getelementptr inbounds i8, ptr %37, i64 %41
  store ptr %42, ptr %13, align 8, !tbaa !25
  call void @llvm.lifetime.start.p0(i64 4, ptr %14) #7
  %43 = load i32, ptr %11, align 4, !tbaa !29
  %44 = mul nsw i32 %43, 4
  %45 = load i32, ptr %12, align 4, !tbaa !29
  %46 = mul nsw i32 %45, 16
  %47 = add nsw i32 %44, %46
  %48 = sext i32 %47 to i64
  %49 = getelementptr inbounds [64 x i8], ptr %9, i64 0, i64 %48
  %50 = load i8, ptr %49, align 1, !tbaa !40
  %51 = zext i8 %50 to i32
  store i32 %51, ptr %14, align 4, !tbaa !29
  call void @llvm.lifetime.start.p0(i64 4, ptr %15) #7
  %52 = load i32, ptr %11, align 4, !tbaa !29
  %53 = mul nsw i32 %52, 4
  %54 = load i32, ptr %12, align 4, !tbaa !29
  %55 = mul nsw i32 %54, 16
  %56 = add nsw i32 %53, %55
  %57 = sext i32 %56 to i64
  %58 = getelementptr inbounds [64 x i8], ptr %10, i64 0, i64 %57
  %59 = load i8, ptr %58, align 1, !tbaa !40
  %60 = zext i8 %59 to i32
  store i32 %60, ptr %15, align 4, !tbaa !29
  call void @llvm.lifetime.start.p0(i64 4, ptr %16) #7
  store i32 127, ptr %16, align 4, !tbaa !29
  call void @llvm.lifetime.start.p0(i64 4, ptr %17) #7
  %61 = load i32, ptr %14, align 4, !tbaa !29
  %62 = load i32, ptr %14, align 4, !tbaa !29
  %63 = mul nsw i32 %61, %62
  %64 = sub nsw i32 65025, %63
  %65 = load i32, ptr %15, align 4, !tbaa !29
  %66 = load i32, ptr %15, align 4, !tbaa !29
  %67 = mul nsw i32 %65, %66
  %68 = sub nsw i32 %64, %67
  %69 = sdiv i32 %68, 2
  store i32 %69, ptr %17, align 4, !tbaa !29
  %70 = load i32, ptr %17, align 4, !tbaa !29
  %71 = icmp sgt i32 %70, 0
  br i1 %71, label %72, label %79

72:                                               ; preds = %32
  %73 = load i32, ptr %17, align 4, !tbaa !29
  %74 = sitofp i32 %73 to float
  %75 = call nsz float @llvm.sqrt.f32(float %74)
  %76 = fpext nsz float %75 to double
  %77 = call i64 @llvm.lrint.i64.f64(double %76)
  %78 = trunc i64 %77 to i32
  store i32 %78, ptr %16, align 4, !tbaa !29
  br label %79

79:                                               ; preds = %72, %32
  %80 = load i32, ptr %14, align 4, !tbaa !29
  %81 = trunc i32 %80 to i8
  %82 = load ptr, ptr %13, align 8, !tbaa !25
  %83 = getelementptr inbounds i8, ptr %82, i64 0
  store i8 %81, ptr %83, align 1, !tbaa !40
  %84 = load i32, ptr %15, align 4, !tbaa !29
  %85 = trunc i32 %84 to i8
  %86 = load ptr, ptr %13, align 8, !tbaa !25
  %87 = getelementptr inbounds i8, ptr %86, i64 1
  store i8 %85, ptr %87, align 1, !tbaa !40
  %88 = load i32, ptr %16, align 4, !tbaa !29
  %89 = trunc i32 %88 to i8
  %90 = load ptr, ptr %13, align 8, !tbaa !25
  %91 = getelementptr inbounds i8, ptr %90, i64 2
  store i8 %89, ptr %91, align 1, !tbaa !40
  %92 = load ptr, ptr %13, align 8, !tbaa !25
  %93 = getelementptr inbounds i8, ptr %92, i64 3
  store i8 -1, ptr %93, align 1, !tbaa !40
  call void @llvm.lifetime.end.p0(i64 4, ptr %17) #7
  call void @llvm.lifetime.end.p0(i64 4, ptr %16) #7
  call void @llvm.lifetime.end.p0(i64 4, ptr %15) #7
  call void @llvm.lifetime.end.p0(i64 4, ptr %14) #7
  call void @llvm.lifetime.end.p0(i64 8, ptr %13) #7
  br label %94

94:                                               ; preds = %79
  %95 = load i32, ptr %11, align 4, !tbaa !29
  %96 = add nsw i32 %95, 1
  store i32 %96, ptr %11, align 4, !tbaa !29
  br label %29, !llvm.loop !88

97:                                               ; preds = %29
  br label %98

98:                                               ; preds = %97
  %99 = load i32, ptr %12, align 4, !tbaa !29
  %100 = add nsw i32 %99, 1
  store i32 %100, ptr %12, align 4, !tbaa !29
  br label %25, !llvm.loop !89

101:                                              ; preds = %25
  call void @llvm.lifetime.end.p0(i64 4, ptr %12) #7
  call void @llvm.lifetime.end.p0(i64 4, ptr %11) #7
  call void @llvm.lifetime.end.p0(i64 64, ptr %10) #7
  call void @llvm.lifetime.end.p0(i64 64, ptr %9) #7
  ret void
}

; Function Attrs: nounwind uwtable
define internal i32 @rgtc2u_block(ptr noundef %0, i64 noundef %1, ptr noundef %2) #1 {
  %4 = alloca ptr, align 8
  %5 = alloca i64, align 8
  %6 = alloca ptr, align 8
  store ptr %0, ptr %4, align 8, !tbaa !25
  store i64 %1, ptr %5, align 8, !tbaa !27
  store ptr %2, ptr %6, align 8, !tbaa !25
  %7 = load ptr, ptr %4, align 8, !tbaa !25
  %8 = load i64, ptr %5, align 8, !tbaa !27
  %9 = load ptr, ptr %6, align 8, !tbaa !25
  call void @rgtc2_block_internal(ptr noundef %7, i64 noundef %8, ptr noundef %9, i32 noundef 0)
  ret i32 16
}